; Function Attrs: mustprogress nofree norecurse nosync nounwind memory(argmem: write) uwtable
define internal fastcc void @_ZN4ncnnL13linear_coeffsEiiPiPfi(i32 noundef %0, i32 noundef %1, ptr noundef writeonly captures(none) %2, ptr noundef writeonly captures(none) %3, i32 noundef %4) unnamed_addr #12 {
  %6 = sitofp i32 %0 to double
  %7 = uitofp nneg i32 %1 to double
  %.not = icmp eq i32 %4, 0
  br i1 %.not, label %8, label %.thread

8:                                                ; preds = %5
  %9 = icmp sgt i32 %1, 0
  br i1 %9, label %.lr.ph.split.us.preheader, label %._crit_edge

.thread:                                          ; preds = %5
  %10 = add nsw i32 %0, -1
  %11 = sitofp i32 %10 to double
  %12 = add nsw i32 %1, -1
  %13 = sitofp i32 %12 to double
  %14 = icmp sgt i32 %1, 0
  br i1 %14, label %.lr.ph.split.preheader, label %._crit_edge

.lr.ph.split.preheader:                           ; preds = %.thread
  %15 = add nsw i32 %0, -1
  %16 = add nsw i32 %0, -2
  %wide.trip.count = zext nneg i32 %1 to i64
  %17 = fdiv fast double 1.000000e+00, %13
  br label %.lr.ph.split

.lr.ph.split.us.preheader:                        ; preds = %8
  %18 = add nsw i32 %0, -1
  %19 = add nsw i32 %0, -2
  %wide.trip.count40 = zext nneg i32 %1 to i64
  %20 = fdiv fast double 1.000000e+00, %7
  br label %.lr.ph.split.us

.lr.ph.split.us:                                  ; preds = %.lr.ph.split.us.preheader, %.lr.ph.split.us
  %indvars.iv37 = phi i64 [ 0, %.lr.ph.split.us.preheader ], [ %indvars.iv.next38, %.lr.ph.split.us ]
  %21 = trunc nuw nsw i64 %indvars.iv37 to i32
  %22 = uitofp nneg i32 %21 to double
  %23 = fadd fast double %22, 5.000000e-01
  %24 = fmul fast double %23, %6
  %25 = fmul fast double %24, %20
  %26 = fadd fast double %25, -5.000000e-01
  %.028.us = fptrunc double %26 to float
  %27 = tail call fast float @llvm.floor.f32(float %.028.us)
  %28 = fptosi float %27 to i32
  %29 = sitofp i32 %28 to float
  %30 = fsub fast float %.028.us, %29
  %31 = icmp slt i32 %28, 0
  %.129.us = select nsz i1 %31, float 0.000000e+00, float %30
  %.0.us = tail call i32 @llvm.smax.i32(i32 %28, i32 0)
  %.not33.us = icmp slt i32 %.0.us, %18
  %.2.us = select nsz i1 %.not33.us, float %.129.us, float 1.000000e+00
  %.1.us = select i1 %.not33.us, i32 %.0.us, i32 %19
  %32 = getelementptr inbounds nuw i32, ptr %2, i64 %indvars.iv37
  store i32 %.1.us, ptr %32, align 4, !tbaa !16
  %33 = fsub fast float 1.000000e+00, %.2.us
  %34 = shl nuw nsw i64 %indvars.iv37, 1
  %35 = getelementptr inbounds nuw float, ptr %3, i64 %34
  store float %33, ptr %35, align 4, !tbaa !49
  %36 = or disjoint i64 %34, 1
  %37 = getelementptr inbounds nuw float, ptr %3, i64 %36
  store float %.2.us, ptr %37, align 4, !tbaa !49
  %indvars.iv.next38 = add nuw nsw i64 %indvars.iv37, 1
  %exitcond41.not = icmp eq i64 %indvars.iv.next38, %wide.trip.count40
  br i1 %exitcond41.not, label %._crit_edge, label %.lr.ph.split.us, !llvm.loop !76

._crit_edge:                                      ; preds = %.lr.ph.split, %.lr.ph.split.us, %.thread, %8
  ret void

.lr.ph.split:                                     ; preds = %.lr.ph.split.preheader, %.lr.ph.split
  %indvars.iv = phi i64 [ 0, %.lr.ph.split.preheader ], [ %indvars.iv.next, %.lr.ph.split ]
  %38 = trunc nuw nsw i64 %indvars.iv to i32
  %39 = uitofp nneg i32 %38 to double
  %40 = fmul fast double %11, %39
  %41 = fmul fast double %40, %17
  %.028 = fptrunc double %41 to float
  %42 = tail call fast float @llvm.floor.f32(float %.028)
  %43 = fptosi float %42 to i32
  %44 = sitofp i32 %43 to float
  %45 = fsub fast float %.028, %44
  %46 = icmp slt i32 %43, 0
  %.129 = select nsz i1 %46, float 0.000000e+00, float %45
  %.0 = tail call i32 @llvm.smax.i32(i32 %43, i32 0)
  %.not33 = icmp slt i32 %.0, %15
  %.2 = select nsz i1 %.not33, float %.129, float 1.000000e+00
  %.1 = select i1 %.not33, i32 %.0, i32 %16
  %47 = getelementptr inbounds nuw i32, ptr %2, i64 %indvars.iv
  store i32 %.1, ptr %47, align 4, !tbaa !16
  %48 = fsub fast float 1.000000e+00, %.2
  %49 = shl nuw nsw i64 %indvars.iv, 1
  %50 = getelementptr inbounds nuw float, ptr %3, i64 %49
  store float %48, ptr %50, align 4, !tbaa !49
  %51 = or disjoint i64 %49, 1
  %52 = getelementptr inbounds nuw float, ptr %3, i64 %51
  store float %.2, ptr %52, align 4, !tbaa !49
  %indvars.iv.next = add nuw nsw i64 %indvars.iv, 1
  %exitcond.not = icmp eq i64 %indvars.iv.next, %wide.trip.count
  br i1 %exitcond.not, label %._crit_edge, label %.lr.ph.split, !llvm.loop !76
}